target datalayout = "e-m:e-p270:32:32-p271:32:32-p272:64:64-i64:64-i128:128-f80:128-n8:16:32:64-S128"
target triple = "x86_64-pc-linux-gnu"

%struct.fstWriterContext = type { ptr, ptr, ptr, ptr, ptr, ptr, ptr, i64, ptr, ptr, ptr, i32, ptr, i32, i32, i32, i8, i64, i64, i32, i32, i64, i64, i32, i32, i32, i64, i32, double, ptr, ptr, i32, i64, i8, i8, i8, i8, i8, i64, i64, i64, i64, i64, i32, ptr, i32, i8, ptr, ptr, ptr, ptr, i32 }

; Function Attrs: mustprogress uwtable
define internal noundef i64 @_ZL9fstFwritePKvmmP8_IO_FILE(ptr noundef %0, i64 noundef %1, i64 noundef %2, ptr noundef %3) #0 {
  %5 = alloca ptr, align 8
  %6 = alloca i64, align 8
  %7 = alloca i64, align 8
  %8 = alloca ptr, align 8
  store ptr %0, ptr %5, align 8, !tbaa !50
  store i64 %1, ptr %6, align 8, !tbaa !35
  store i64 %2, ptr %7, align 8, !tbaa !35
  store ptr %3, ptr %8, align 8, !tbaa !33
  %9 = load ptr, ptr %5, align 8, !tbaa !50
  %10 = load i64, ptr %6, align 8, !tbaa !35
  %11 = load i64, ptr %7, align 8, !tbaa !35
  %12 = load ptr, ptr %8, align 8, !tbaa !33
  %13 = call i64 @fwrite(ptr noundef %9, i64 noundef %10, i64 noundef %11, ptr noundef %12)
  ret i64 %13
}

; Function Attrs: mustprogress uwtable
define internal noundef i32 @_ZL15fstWriterFseekoP16fstWriterContextP8_IO_FILEli(ptr noundef %0, ptr noundef %1, i64 noundef %2, i32 noundef %3) #0 {
  %5 = alloca ptr, align 8
  %6 = alloca ptr, align 8
  %7 = alloca i64, align 8
  %8 = alloca i32, align 4
  %9 = alloca i32, align 4
  store ptr %0, ptr %5, align 8, !tbaa !13
  store ptr %1, ptr %6, align 8, !tbaa !33
  store i64 %2, ptr %7, align 8, !tbaa !35
  store i32 %3, ptr %8, align 4, !tbaa !11
  call void @llvm.lifetime.start.p0(i64 4, ptr %9) #15
  %10 = load ptr, ptr %6, align 8, !tbaa !33
  %11 = load i64, ptr %7, align 8, !tbaa !35
  %12 = load i32, ptr %8, align 4, !tbaa !11
  %13 = call i32 @fseeko(ptr noundef %10, i64 noundef %11, i32 noundef %12)
  store i32 %13, ptr %9, align 4, !tbaa !11
  %14 = load i32, ptr %9, align 4, !tbaa !11
  %15 = icmp slt i32 %14, 0
  br i1 %15, label %16, label %22

16:                                               ; preds = %4
  %17 = load ptr, ptr %5, align 8, !tbaa !13
  %18 = getelementptr inbounds nuw %struct.fstWriterContext, ptr %17, i32 0, i32 46
  %19 = load i8, ptr %18, align 4
  %20 = and i8 %19, -2
  %21 = or i8 %20, 1
  store i8 %21, ptr %18, align 4
  br label %22

22:                                               ; preds = %16, %4
  %23 = load i32, ptr %9, align 4, !tbaa !11
  call void @llvm.lifetime.end.p0(i64 4, ptr %9) #15
  ret i32 %23
}

; Function Attrs: mustprogress uwtable
define void @fstWriterSetDate(ptr noundef %0, ptr noundef %1) #0 {
  %3 = alloca ptr, align 8
  %4 = alloca ptr, align 8
  %5 = alloca ptr, align 8
  %6 = alloca [119 x i8], align 16
  %7 = alloca i64, align 8
  %8 = alloca i32, align 4
  store ptr %0, ptr %3, align 8, !tbaa !50
  store ptr %1, ptr %4, align 8, !tbaa !6
  call void @llvm.lifetime.start.p0(i64 8, ptr %5) #15
  %9 = load ptr, ptr %3, align 8, !tbaa !50
  store ptr %9, ptr %5, align 8, !tbaa !13
  %10 = load ptr, ptr %5, align 8, !tbaa !13
  %11 = icmp ne ptr %10, null
  br i1 %11, label %12, label %51

12:                                               ; preds = %2
  call void @llvm.lifetime.start.p0(i64 119, ptr %6) #15
  call void @llvm.lifetime.start.p0(i64 8, ptr %7) #15
  %13 = load ptr, ptr %5, align 8, !tbaa !13
  %14 = getelementptr inbounds nuw %struct.fstWriterContext, ptr %13, i32 0, i32 0
  %15 = load ptr, ptr %14, align 8, !tbaa !15
  %16 = call i64 @ftello(ptr noundef %15)
  store i64 %16, ptr %7, align 8, !tbaa !35
  call void @llvm.lifetime.start.p0(i64 4, ptr %8) #15
  %17 = load ptr, ptr %4, align 8, !tbaa !6
  %18 = call i64 @strlen(ptr noundef %17) #17
  %19 = trunc i64 %18 to i32
  store i32 %19, ptr %8, align 4, !tbaa !11
  %20 = load ptr, ptr %5, align 8, !tbaa !13
  %21 = load ptr, ptr %5, align 8, !tbaa !13
  %22 = getelementptr inbounds nuw %struct.fstWriterContext, ptr %21, i32 0, i32 0
  %23 = load ptr, ptr %22, align 8, !tbaa !15
  %24 = call noundef i32 @_ZL15fstWriterFseekoP16fstWriterContextP8_IO_FILEli(ptr noundef %20, ptr noundef %23, i64 noundef 202, i32 noundef 0)
  %25 = getelementptr inbounds [119 x i8], ptr %6, i64 0, i64 0
  call void @llvm.memset.p0.i64(ptr align 16 %25, i8 0, i64 119, i1 false)
  %26 = getelementptr inbounds [119 x i8], ptr %6, i64 0, i64 0
  %27 = load ptr, ptr %4, align 8, !tbaa !6
  %28 = load i32, ptr %8, align 4, !tbaa !11
  %29 = icmp slt i32 %28, 119
  br i1 %29, label %30, label %32

30:                                               ; preds = %12
  %31 = load i32, ptr %8, align 4, !tbaa !11
  br label %33

32:                                               ; preds = %12
  br label %33

33:                                               ; preds = %32, %30
  %34 = phi i32 [ %31, %30 ], [ 119, %32 ]
  %35 = sext i32 %34 to i64
  call void @llvm.memcpy.p0.p0.i64(ptr align 16 %26, ptr align 1 %27, i64 %35, i1 false)
  %36 = getelementptr inbounds [119 x i8], ptr %6, i64 0, i64 0
  %37 = load ptr, ptr %5, align 8, !tbaa !13
  %38 = getelementptr inbounds nuw %struct.fstWriterContext, ptr %37, i32 0, i32 0
  %39 = load ptr, ptr %38, align 8, !tbaa !15
  %40 = call noundef i64 @_ZL9fstFwritePKvmmP8_IO_FILE(ptr noundef %36, i64 noundef 119, i64 noundef 1, ptr noundef %39)
  %41 = load ptr, ptr %5, align 8, !tbaa !13
  %42 = getelementptr inbounds nuw %struct.fstWriterContext, ptr %41, i32 0, i32 0
  %43 = load ptr, ptr %42, align 8, !tbaa !15
  %44 = call i32 @fflush(ptr noundef %43)
  %45 = load ptr, ptr %5, align 8, !tbaa !13
  %46 = load ptr, ptr %5, align 8, !tbaa !13
  %47 = getelementptr inbounds nuw %struct.fstWriterContext, ptr %46, i32 0, i32 0
  %48 = load ptr, ptr %47, align 8, !tbaa !15
  %49 = load i64, ptr %7, align 8, !tbaa !35
  %50 = call noundef i32 @_ZL15fstWriterFseekoP16fstWriterContextP8_IO_FILEli(ptr noundef %45, ptr noundef %48, i64 noundef %49, i32 noundef 0)
  call void @llvm.lifetime.end.p0(i64 4, ptr %8) #15
  call void @llvm.lifetime.end.p0(i64 8, ptr %7) #15
  call void @llvm.lifetime.end.p0(i64 119, ptr %6) #15
  br label %51

51:                                               ; preds = %33, %2
  call void @llvm.lifetime.end.p0(i64 8, ptr %5) #15
  ret void
}