; Function Attrs: mustprogress nofree nounwind uwtable
define void @fstWriterSetDate(ptr noundef captures(address_is_null) %0, ptr noundef readonly captures(none) %1) local_unnamed_addr #14 {
  %3 = alloca [119 x i8], align 16
  %.not = icmp eq ptr %0, null
  br i1 %.not, label %29, label %4

4:                                                ; preds = %2
  call void @llvm.lifetime.start.p0(i64 119, ptr nonnull %3) #39
  %5 = load ptr, ptr %0, align 8, !tbaa !26
  %6 = tail call i64 @ftello(ptr noundef %5)
  %7 = tail call i64 @strlen(ptr noundef nonnull dereferenceable(1) %1) #40
  %8 = trunc i64 %7 to i32
  %9 = load ptr, ptr %0, align 8, !tbaa !26
  %10 = tail call i32 @fseeko(ptr noundef %9, i64 noundef 202, i32 noundef 0)
  %11 = icmp slt i32 %10, 0
  br i1 %11, label %12, label %_ZL15fstWriterFseekoP16fstWriterContextP8_IO_FILEli.exit

12:                                               ; preds = %4
  %13 = getelementptr inbounds nuw i8, ptr %0, i64 300
  %14 = load i8, ptr %13, align 4
  %15 = or i8 %14, 1
  store i8 %15, ptr %13, align 4
  br label %_ZL15fstWriterFseekoP16fstWriterContextP8_IO_FILEli.exit

_ZL15fstWriterFseekoP16fstWriterContextP8_IO_FILEli.exit: ; preds = %4, %12
  call void @llvm.memset.p0.i64(ptr noundef nonnull align 16 dereferenceable(119) %3, i8 0, i64 119, i1 false)
  %16 = tail call i32 @llvm.smin.i32(i32 %8, i32 119)
  %17 = sext i32 %16 to i64
  call void @llvm.memcpy.p0.p0.i64(ptr nonnull align 16 %3, ptr nonnull align 1 %1, i64 %17, i1 false)
  %18 = load ptr, ptr %0, align 8, !tbaa !26
  %19 = call noundef i64 @fwrite(ptr noundef nonnull %3, i64 noundef 119, i64 noundef 1, ptr noundef %18)
  %20 = load ptr, ptr %0, align 8, !tbaa !26
  %21 = tail call i32 @fflush(ptr noundef %20)
  %22 = load ptr, ptr %0, align 8, !tbaa !26
  %23 = tail call i32 @fseeko(ptr noundef %22, i64 noundef %6, i32 noundef 0)
  %24 = icmp slt i32 %23, 0
  br i1 %24, label %25, label %_ZL15fstWriterFseekoP16fstWriterContextP8_IO_FILEli.exit13

25:                                               ; preds = %_ZL15fstWriterFseekoP16fstWriterContextP8_IO_FILEli.exit
  %26 = getelementptr inbounds nuw i8, ptr %0, i64 300
  %27 = load i8, ptr %26, align 4
  %28 = or i8 %27, 1
  store i8 %28, ptr %26, align 4
  br label %_ZL15fstWriterFseekoP16fstWriterContextP8_IO_FILEli.exit13

_ZL15fstWriterFseekoP16fstWriterContextP8_IO_FILEli.exit13: ; preds = %_ZL15fstWriterFseekoP16fstWriterContextP8_IO_FILEli.exit, %25
  call void @llvm.lifetime.end.p0(i64 119, ptr nonnull %3) #39
  br label %29

29:                                               ; preds = %_ZL15fstWriterFseekoP16fstWriterContextP8_IO_FILEli.exit13, %2
  ret void
}